; Function Attrs: noreturn uwtable
define noundef i64 @_ZThn32_N8proxygen2hq14HQControlCodec16generatePriorityERN5folly10IOBufQueueEmRKSt5tupleIJmbhEE(ptr nocapture readnone %this, ptr nocapture nonnull readnone align 8 %0, i64 %1, ptr nocapture nonnull readnone align 8 %2) unnamed_addr #12 align 2 personality ptr @__gxx_personality_v0 {
entry:
  %ref.tmp4.i = alloca %"class.google::LogMessageFatal", align 8
  call void @llvm.lifetime.start.p0(i64 96, ptr nonnull %ref.tmp4.i)
  call void @_ZN6google15LogMessageFatalC1EPKci(ptr noundef nonnull align 8 dereferenceable(96) %ref.tmp4.i, ptr noundef nonnull @.str, i32 noundef 258)
  %call.i = invoke noundef nonnull align 8 dereferenceable(8) ptr @_ZN6google10LogMessage6streamEv(ptr noundef nonnull align 8 dereferenceable(96) %ref.tmp4.i)
          to label %invoke.cont.i unwind label %lpad.i

invoke.cont.i:                                    ; preds = %entry
  %call6.i = invoke noundef nonnull align 8 dereferenceable(8) ptr @_ZStlsISt11char_traitsIcEERSt13basic_ostreamIcT_ES5_PKc(ptr noundef nonnull align 8 dereferenceable(8) %call.i, ptr noundef nonnull @.str.13)
          to label %invoke.cont5.i unwind label %lpad.i

invoke.cont5.i:                                   ; preds = %invoke.cont.i
  %call8.i = invoke noundef nonnull align 8 dereferenceable(8) ptr @_ZStlsISt11char_traitsIcEERSt13basic_ostreamIcT_ES5_PKc(ptr noundef nonnull align 8 dereferenceable(8) %call6.i, ptr noundef nonnull @__func__._ZN8proxygen2hq14HQControlCodec16generatePriorityERN5folly10IOBufQueueEmRKSt5tupleIJmbhEE)
          to label %invoke.cont7.i unwind label %lpad.i

invoke.cont7.i:                                   ; preds = %invoke.cont5.i
  %call10.i = invoke noundef nonnull align 8 dereferenceable(8) ptr @_ZStlsISt11char_traitsIcEERSt13basic_ostreamIcT_ES5_PKc(ptr noundef nonnull align 8 dereferenceable(8) %call8.i, ptr noundef nonnull @.str.14)
          to label %invoke.cont9.i unwind label %lpad.i

invoke.cont9.i:                                   ; preds = %invoke.cont7.i
  call void @_ZN6google15LogMessageFatalD1Ev(ptr noundef nonnull align 8 dereferenceable(96) %ref.tmp4.i) #26
  unreachable

lpad.i:                                           ; preds = %invoke.cont7.i, %invoke.cont5.i, %invoke.cont.i, %entry
  %3 = landingpad { ptr, i32 }
          cleanup
  call void @_ZN6google15LogMessageFatalD1Ev(ptr noundef nonnull align 8 dereferenceable(96) %ref.tmp4.i) #26
  unreachable
}